Certificate:
    Data:
        Version: 3 (0x2)
        Serial Number: 16368066048948418340 (0xe3270d598bb3b724)
    Signature Algorithm: sha256WithRSAEncryption
        Issuer: CN=proxy2 CA
        Validity
            Not Before: Jan  1 00:00:00 2015 GMT
            Not After : Jan  1 00:00:00 2025 GMT
        Subject: CN=proxy2 CA
        Subject Public Key Info:
            Public Key Algorithm: rsaEncryption
                Public-Key: (2048 bit)
                Modulus:
                    00:d3:69:22:f3:47:e1:13:e0:9f:2f:fe:94:aa:44:
                    82:8e:7f:73:6d:6a:3d:e2:ff:90:7e:86:34:9b:64:
                    98:4c:96:c1:10:14:a8:de:c4:d8:ad:51:af:87:d6:
                    0a:34:b9:1a:10:f9:5e:f6:40:7e:aa:eb:75:42:0c:
                    70:08:c7:24:7c:a3:ea:4b:73:25:ad:89:3c:a6:2f:
                    f6:83:d0:5c:8a:bc:d0:61:52:0f:af:b7:e4:7d:4a:
                    da:a7:ba:1e:76:35:1b:e2:55:52:aa:d2:c3:ff:fa:
                    65:f4:0b:51:0f:f0:42:37:a9:c6:27:1b:79:f7:81:
                    8a:13:60:21:83:a4:5b:f3:08:ba:a9:43:d7:2b:d6:
                    08:bb:b8:12:d7:10:6a:e0:cd:b5:8d:29:f6:0a:0b:
                    03:07:ec:55:51:70:96:c8:40:1e:77:22:16:f2:7a:
                    5a:57:5b:0a:82:53:47:70:a1:9c:79:07:b8:bc:01:
                    7e:c0:d9:13:99:b2:26:0c:df:a6:ad:45:68:0c:76:
                    28:c6:1d:96:79:2b:69:b9:46:1b:a1:d9:23:87:b4:
                    b8:fc:3d:18:bc:9b:a4:46:cd:01:e1:0e:0c:54:aa:
                    b8:81:8c:b5:73:44:69:c3:5e:7b:63:c8:8f:7a:02:
                    70:8b:c1:88:65:3e:26:b5:61:55:0b:c5:19:ea:ec:
                    39:5f
                Exponent: 65537 (0x10001)
        X509v3 extensions:
            X509v3 Subject Key Identifier: 
                E2:EF:B2:2F:D2:88:48:4A:03:63:AD:AC:6A:A7:09:42:90:84:14:94
            X509v3 Authority Key Identifier: 
                keyid:E2:EF:B2:2F:D2:88:48:4A:03:63:AD:AC:6A:A7:09:42:90:84:14:94

            X509v3 Basic Constraints: 
                CA:TRUE
    Signature Algorithm: sha256WithRSAEncryption
         3e:7a:56:6f:ba:27:41:bb:d5:12:fa:bd:7b:57:f6:49:92:3b:
         e5:ea:2b:5a:b5:40:37:27:f5:23:84:78:97:07:86:87:e3:11:
         01:6c:f0:47:49:3f:29:6a:49:f2:2c:0c:a3:bb:16:12:01:59:
         88:be:13:10:52:30:e9:c0:00:04:d0:f5:89:40:0e:c0:54:af:
         b4:c4:9d:13:09:7c:47:fc:4b:e5:1d:34:b9:e3:8c:96:0a:5c:
         55:e2:fc:75:40:18:05:a0:f2:93:25:62:68:b5:5c:28:ce:66:
         e7:5a:0f:e7:11:15:c1:0b:f5:87:ad:7a:85:45:bb:67:77:43:
         e9:f5:a9:49:d2:78:e3:b2:68:ec:c0:d5:12:8f:bb:fe:d4:2f:
         04:fe:9b:c6:d9:41:8a:94:df:e4:c5:be:82:3e:d6:dc:a1:1e:
         a7:9a:0d:a7:9f:9f:a0:46:a5:a0:c0:6e:78:1d:49:a6:f2:83:
         d1:60:a1:ae:1a:87:dc:30:ca:64:3f:78:dd:fb:cf:07:96:26:
         02:dd:9b:c6:a1:b4:fb:58:d9:d1:53:44:f0:65:fb:4c:3b:7f:
         5e:6b:28:38:bd:3a:ab:92:31:ed:b5:3a:25:c1:13:e2:1e:9c:
         4c:0e:3f:81:af:ba:b6:0e:00:17:1c:51:92:00:5a:f7:d7:e4:
         75:98:af:97
-----BEGIN CERTIFICATE-----
MIIC/zCCAeegAwIBAgIJAOMnDVmLs7ckMA0GCSqGSIb3DQEBCwUAMBQxEjAQBgNV
BAMMCXByb3h5MiBDQTAiGA8yMDE1MDEwMTAwMDAwMFoYDzIwMjUwMTAxMDAwMDAw
WjAUMRIwEAYDVQQDDAlwcm94eTIgQ0EwggEiMA0GCSqGSIb3DQEBAQUAA4IBDwAw
ggEKAoIBAQDTaSLzR+ET4J8v/pSqRIKOf3Ntaj3i/5B+hjSbZJhMlsEQFKjexNit
Ua+H1go0uRoQ+V72QH6q63VCDHAIxyR8o+pLcyWtiTymL/aD0FyKvNBhUg+vt+R9
Stqnuh52NRviVVKq0sP/+mX0C1EP8EI3qcYnG3n3gYoTYCGDpFvzCLqpQ9cr1gi7
uBLXEGrgzbWNKfYKCwMH7FVRcJbIQB53IhbyelpXWwqCU0dwoZx5B7i8AX7A2ROZ
siYM36atRWgMdijGHZZ5K2m5Rhuh2SOHtLj8PRi8m6RGzQHhDgxUqriBjLVzRGnD
XntjyI96AnCLwYhlPia1YVULxRnq7DlfAgMBAAGjUDBOMB0GA1UdDgQWBBTi77Iv
0ohISgNjraxqpwlCkIQUlDAfBgNVHSMEGDAWgBTi77Iv0ohISgNjraxqpwlCkIQU
lDAMBgNVHRMEBTADAQH/MA0GCSqGSIb3DQEBCwUAA4IBAQA+elZvuidBu9US+r17
V/ZJkjvl6itatUA3J/UjhHiXB4aH4xEBbPBHST8paknyLAyjuxYSAVmIvhMQUjDp
wAAE0PWJQA7AVK+0xJ0TCXxH/EvlHTS544yWClxV4vx1QBgFoPKTJWJotVwozmbn
Wg/nERXBC/WHrXqFRbtnd0Pp9alJ0njjsmjswNUSj7v+1C8E/pvG2UGKlN/kxb6C
PtbcoR6nmg2nn5+gRqWgwG54HUmm8oPRYKGuGofcMMpkP3jd+88HliYC3ZvGobT7
WNnRU0TwZftMO39eayg4vTqrkjHttTolwRPiHpxMDj+Br7q2DgAXHFGSAFr31+R1
mK+X
-----END CERTIFICATE-----
